; Function Attrs: mustprogress uwtable
define hidden void @_ZN19OpenColorIO_v2_5dev15ReferenceOpDataC2Ev(ptr noundef nonnull align 8 dereferenceable(244) %0) unnamed_addr #0 align 2 personality ptr @__gxx_personality_v0 {
  tail call void @_ZN19OpenColorIO_v2_5dev6OpDataC2Ev(ptr noundef nonnull align 8 dereferenceable(168) %0)
  store ptr getelementptr inbounds nuw inrange(-16, 88) (i8, ptr @_ZTVN19OpenColorIO_v2_5dev15ReferenceOpDataE, i64 16), ptr %0, align 8, !tbaa !3
  %2 = getelementptr inbounds nuw i8, ptr %0, i64 168
  store i32 0, ptr %2, align 8, !tbaa !6
  %3 = getelementptr inbounds nuw i8, ptr %0, i64 176
  %4 = getelementptr inbounds nuw i8, ptr %0, i64 192
  store ptr %4, ptr %3, align 8, !tbaa !31
  %5 = getelementptr inbounds nuw i8, ptr %0, i64 184
  store i64 0, ptr %5, align 8, !tbaa !32
  store i8 0, ptr %4, align 8, !tbaa !33
  %6 = getelementptr inbounds nuw i8, ptr %0, i64 208
  %7 = getelementptr inbounds nuw i8, ptr %0, i64 224
  store ptr %7, ptr %6, align 8, !tbaa !31
  %8 = getelementptr inbounds nuw i8, ptr %0, i64 216
  store i64 0, ptr %8, align 8, !tbaa !32
  store i8 0, ptr %7, align 8, !tbaa !33
  %9 = getelementptr inbounds nuw i8, ptr %0, i64 240
  store i32 0, ptr %9, align 8, !tbaa !34
  ret void
}